; ModuleID = '388.c'
source_filename = "388.c"
target datalayout = "e-m:e-p270:32:32-p271:32:32-p272:64:64-i64:64-f80:128-n8:16:32:64-S128"
target triple = "x86_64-pc-linux-gnu"

@.str = private unnamed_addr constant [4 x i8] c"%d\0A\00", align 1
@.str.1 = private unnamed_addr constant [4 x i8] c"%c\0A\00", align 1
@.str.2 = private unnamed_addr constant [4 x i8] c"no\0A\00", align 1

; Function Attrs: noinline nounwind uwtable
define dso_local void @main() #0 {
  %1 = alloca i32, align 4
  %2 = alloca [100000 x i8], align 16
  %3 = alloca i32, align 4
  %4 = call i32 (i8*, ...) @__isoc99_scanf(i8* getelementptr inbounds ([4 x i8], [4 x i8]* @.str, i64 0, i64 0), i32* %1)
  store i32 1, i32* %3, align 4
  br label %5

5:                                                ; preds = %13, %0
  %6 = load i32, i32* %3, align 4
  %7 = load i32, i32* %1, align 4
  %8 = icmp sle i32 %6, %7
  br i1 %8, label %9, label %16

9:                                                ; preds = %5
  %10 = getelementptr inbounds [100000 x i8], [100000 x i8]* %2, i64 0, i64 0
  %11 = call i32 (i8*, ...) bitcast (i32 (...)* @gets to i32 (i8*, ...)*)(i8* %10)
  %12 = getelementptr inbounds [100000 x i8], [100000 x i8]* %2, i64 0, i64 0
  call void @selectt(i8* %12)
  br label %13

13:                                               ; preds = %9
  %14 = load i32, i32* %3, align 4
  %15 = add nsw i32 %14, 1
  store i32 %15, i32* %3, align 4
  br label %5

16:                                               ; preds = %5
  ret void
}

declare dso_local i32 @__isoc99_scanf(i8*, ...) #1

declare dso_local i32 @gets(...) #1

; Function Attrs: noinline nounwind uwtable
define dso_local void @selectt(i8* %0) #0 {
  %2 = alloca i8*, align 8
  %3 = alloca [26 x i8*], align 16
  %4 = alloca i8*, align 8
  %5 = alloca i32, align 4
  %6 = alloca [26 x i32], align 16
  %7 = alloca i32, align 4
  %8 = alloca i32, align 4
  %9 = alloca i32, align 4
  %10 = alloca i32, align 4
  store i8* %0, i8** %2, align 8
  %11 = load i8*, i8** %2, align 8
  %12 = getelementptr inbounds i8, i8* %11, i64 0
  %13 = getelementptr inbounds [26 x i8*], [26 x i8*]* %3, i64 0, i64 0
  store i8* %12, i8** %13, align 16
  store i32 0, i32* %5, align 4
  %14 = bitcast [26 x i32]* %6 to i8*
  call void @llvm.memset.p0i8.i64(i8* align 16 %14, i8 0, i64 104, i1 false)
  %15 = load i8*, i8** %2, align 8
  %16 = getelementptr inbounds i8, i8* %15, i64 1
  store i8* %16, i8** %4, align 8
  br label %17

17:                                               ; preds = %55, %1
  %18 = load i8*, i8** %4, align 8
  %19 = load i8, i8* %18, align 1
  %20 = sext i8 %19 to i32
  %21 = icmp ne i32 %20, 0
  br i1 %21, label %22, label %58

22:                                               ; preds = %17
  store i32 0, i32* %8, align 4
  store i32 0, i32* %7, align 4
  br label %23

23:                                               ; preds = %43, %22
  %24 = load i32, i32* %7, align 4
  %25 = load i32, i32* %5, align 4
  %26 = icmp sle i32 %24, %25
  br i1 %26, label %27, label %46

27:                                               ; preds = %23
  %28 = load i8*, i8** %4, align 8
  %29 = load i8, i8* %28, align 1
  %30 = sext i8 %29 to i32
  %31 = load i32, i32* %7, align 4
  %32 = sext i32 %31 to i64
  %33 = getelementptr inbounds [26 x i8*], [26 x i8*]* %3, i64 0, i64 %32
  %34 = load i8*, i8** %33, align 8
  %35 = load i8, i8* %34, align 1
  %36 = sext i8 %35 to i32
  %37 = icmp eq i32 %30, %36
  br i1 %37, label %38, label %42

38:                                               ; preds = %27
  %39 = load i32, i32* %7, align 4
  %40 = sext i32 %39 to i64
  %41 = getelementptr inbounds [26 x i32], [26 x i32]* %6, i64 0, i64 %40
  store i32 1, i32* %41, align 4
  store i32 1, i32* %8, align 4
  br label %46

42:                                               ; preds = %27
  br label %43

43:                                               ; preds = %42
  %44 = load i32, i32* %7, align 4
  %45 = add nsw i32 %44, 1
  store i32 %45, i32* %7, align 4
  br label %23

46:                                               ; preds = %38, %23
  %47 = load i32, i32* %8, align 4
  %48 = icmp eq i32 %47, 0
  br i1 %48, label %49, label %55

49:                                               ; preds = %46
  %50 = load i8*, i8** %4, align 8
  %51 = load i32, i32* %5, align 4
  %52 = add nsw i32 %51, 1
  store i32 %52, i32* %5, align 4
  %53 = sext i32 %52 to i64
  %54 = getelementptr inbounds [26 x i8*], [26 x i8*]* %3, i64 0, i64 %53
  store i8* %50, i8** %54, align 8
  br label %55

55:                                               ; preds = %49, %46
  %56 = load i8*, i8** %4, align 8
  %57 = getelementptr inbounds i8, i8* %56, i32 1
  store i8* %57, i8** %4, align 8
  br label %17

58:                                               ; preds = %17
  store i32 0, i32* %10, align 4
  store i32 0, i32* %9, align 4
  br label %59

59:                                               ; preds = %78, %58
  %60 = load i32, i32* %9, align 4
  %61 = load i32, i32* %5, align 4
  %62 = icmp sle i32 %60, %61
  br i1 %62, label %63, label %81

63:                                               ; preds = %59
  %64 = load i32, i32* %9, align 4
  %65 = sext i32 %64 to i64
  %66 = getelementptr inbounds [26 x i32], [26 x i32]* %6, i64 0, i64 %65
  %67 = load i32, i32* %66, align 4
  %68 = icmp eq i32 %67, 0
  br i1 %68, label %69, label %77

69:                                               ; preds = %63
  %70 = load i32, i32* %9, align 4
  %71 = sext i32 %70 to i64
  %72 = getelementptr inbounds [26 x i8*], [26 x i8*]* %3, i64 0, i64 %71
  %73 = load i8*, i8** %72, align 8
  %74 = load i8, i8* %73, align 1
  %75 = sext i8 %74 to i32
  %76 = call i32 (i8*, ...) @printf(i8* getelementptr inbounds ([4 x i8], [4 x i8]* @.str.1, i64 0, i64 0), i32 %75)
  store i32 1, i32* %10, align 4
  br label %81

77:                                               ; preds = %63
  br label %78

78:                                               ; preds = %77
  %79 = load i32, i32* %9, align 4
  %80 = add nsw i32 %79, 1
  store i32 %80, i32* %9, align 4
  br label %59

81:                                               ; preds = %69, %59
  %82 = load i32, i32* %10, align 4
  %83 = icmp eq i32 %82, 0
  br i1 %83, label %84, label %86

84:                                               ; preds = %81
  %85 = call i32 (i8*, ...) @printf(i8* getelementptr inbounds ([4 x i8], [4 x i8]* @.str.2, i64 0, i64 0))
  br label %86

86:                                               ; preds = %84, %81
  ret void
}

; Function Attrs: argmemonly nounwind willreturn
declare void @llvm.memset.p0i8.i64(i8* nocapture writeonly, i8, i64, i1 immarg) #2

declare dso_local i32 @printf(i8*, ...) #1


!llvm.module.flags = !{!0}
!llvm.ident = !{!1}

!0 = !{i32 1, !"wchar_size", i32 4}
!1 = !{!"clang version 10.0.0-4ubuntu1 "}
